; Function Attrs: mustprogress nofree norecurse nosync nounwind willreturn memory(read, inaccessiblemem: none) uwtable
define internal noundef float @_ZNK5faiss12_GLOBAL__N_110DCTemplateINS0_17QuantizerTemplateINS0_9Codec4bitELb0ELi1EEENS0_12SimilarityL2ILi1EEELi1EE13query_to_codeEPKh(ptr nocapture noundef nonnull readonly align 8 dereferenceable(64) %0, ptr nocapture noundef readonly %1) unnamed_addr #20 align 2 {
  %3 = getelementptr inbounds i8, ptr %0, i64 40
  %4 = load i64, ptr %3, align 8
  %.not.i = icmp eq i64 %4, 0
  br i1 %.not.i, label %_ZNK5faiss12_GLOBAL__N_110DCTemplateINS0_17QuantizerTemplateINS0_9Codec4bitELb0ELi1EEENS0_12SimilarityL2ILi1EEELi1EE16compute_distanceEPKfPKh.exit, label %.lr.ph.i

.lr.ph.i:                                         ; preds = %2
  %5 = getelementptr inbounds i8, ptr %0, i64 24
  %6 = load ptr, ptr %5, align 8
  %7 = getelementptr inbounds i8, ptr %0, i64 48
  %8 = load ptr, ptr %7, align 8
  %9 = getelementptr inbounds i8, ptr %0, i64 56
  %10 = load ptr, ptr %9, align 8
  br label %11

11:                                               ; preds = %11, %.lr.ph.i
  %.024.i = phi i64 [ 0, %.lr.ph.i ], [ %35, %11 ]
  %.sroa.5.023.i = phi float [ 0.000000e+00, %.lr.ph.i ], [ %34, %11 ]
  %.sroa.2.022.i = phi ptr [ %6, %.lr.ph.i ], [ %31, %11 ]
  %12 = trunc i64 %.024.i to i32
  %13 = sdiv i32 %12, 2
  %14 = sext i32 %13 to i64
  %15 = getelementptr inbounds i8, ptr %1, i64 %14
  %16 = load i8, ptr %15, align 1
  %17 = zext i8 %16 to i32
  %18 = shl i32 %12, 2
  %19 = and i32 %18, 4
  %20 = lshr i32 %17, %19
  %21 = and i32 %20, 15
  %22 = sitofp i32 %21 to float
  %23 = fadd float %22, 5.000000e-01
  %24 = fdiv float %23, 1.500000e+01
  %sext.i = shl i64 %.024.i, 32
  %25 = ashr exact i64 %sext.i, 32
  %26 = getelementptr inbounds float, ptr %8, i64 %25
  %27 = load float, ptr %26, align 4
  %28 = getelementptr inbounds float, ptr %10, i64 %25
  %29 = load float, ptr %28, align 4
  %30 = tail call noundef float @llvm.fmuladd.f32(float %24, float %29, float %27)
  %31 = getelementptr inbounds i8, ptr %.sroa.2.022.i, i64 4
  %32 = load float, ptr %.sroa.2.022.i, align 4
  %33 = fsub float %32, %30
  %34 = tail call float @llvm.fmuladd.f32(float %33, float %33, float %.sroa.5.023.i)
  %35 = add nuw i64 %.024.i, 1
  %exitcond.not.i = icmp eq i64 %35, %4
  br i1 %exitcond.not.i, label %_ZNK5faiss12_GLOBAL__N_110DCTemplateINS0_17QuantizerTemplateINS0_9Codec4bitELb0ELi1EEENS0_12SimilarityL2ILi1EEELi1EE16compute_distanceEPKfPKh.exit, label %11, !llvm.loop !53

_ZNK5faiss12_GLOBAL__N_110DCTemplateINS0_17QuantizerTemplateINS0_9Codec4bitELb0ELi1EEENS0_12SimilarityL2ILi1EEELi1EE16compute_distanceEPKfPKh.exit: ; preds = %11, %2
  %.sroa.5.0.lcssa.i = phi float [ 0.000000e+00, %2 ], [ %34, %11 ]
  ret float %.sroa.5.0.lcssa.i
}